; Function Attrs: nounwind uwtable
define hidden void @arena_slab_dalloc(ptr noundef %tsdn, ptr noundef %arena, ptr noundef %slab) local_unnamed_addr #0 {
entry:
  %deferred_work_generated = alloca i8, align 1
  store i8 0, ptr %deferred_work_generated, align 1
  %pa_shard = getelementptr inbounds i8, ptr %arena, i64 10648
  call void @pa_dalloc(ptr noundef %tsdn, ptr noundef nonnull %pa_shard, ptr noundef %slab, ptr noundef nonnull %deferred_work_generated) #15
  %0 = load i8, ptr %deferred_work_generated, align 1
  %1 = and i8 %0, 1
  %tobool.not = icmp eq i8 %1, 0
  br i1 %tobool.not, label %if.end, label %if.then

if.then:                                          ; preds = %entry
  call void @arena_handle_deferred_work(ptr noundef %tsdn, ptr noundef %arena)
  br label %if.end

if.end:                                           ; preds = %if.then, %entry
  ret void
}